target datalayout = "e-m:e-p270:32:32-p271:32:32-p272:64:64-i64:64-i128:128-f80:128-n8:16:32:64-S128"
target triple = "x86_64-pc-linux-gnu"

%struct._archiveHandle = type { %struct.Archive, i32, ptr, ptr, i64, i64, i32, %struct.sqlparseInfo, i64, i32, ptr, i64, i64, i64, ptr, ptr, ptr, ptr, ptr, ptr, ptr, ptr, ptr, ptr, ptr, ptr, ptr, ptr, ptr, ptr, ptr, ptr, ptr, ptr, ptr, ptr, ptr, ptr, ptr, ptr, ptr, ptr, ptr, ptr, i32, i32, i8, i32, i8, i32, ptr, ptr, ptr, ptr, i32, i32, ptr, ptr, ptr, %struct.pg_compress_specification, i8, i32, i32, ptr, ptr, ptr, ptr, ptr, i32, ptr, i64, i64, i32, i32, i32, i32, ptr, ptr }
%struct.Archive = type { ptr, ptr, i32, ptr, i32, i8, i32, i32, i32, ptr, i32, i8, ptr, ptr, i8, i32, ptr }
%struct.sqlparseInfo = type { i32, i8, ptr }
%struct.pg_compress_specification = type { i32, i32, i32, i32, i8, ptr }

@.str.16 = private unnamed_addr constant [44 x i8] c"could not read from input file: end of file\00", align 1
@.str.17 = private unnamed_addr constant [35 x i8] c"could not read from input file: %m\00", align 1

; Function Attrs: nounwind uwtable
define internal i32 @_ReadByte(ptr noundef %0) #0 {
  %2 = alloca ptr, align 8
  %3 = alloca i32, align 4
  store ptr %0, ptr %2, align 8
  call void @llvm.lifetime.start.p0(i64 4, ptr %3) #7
  %4 = load ptr, ptr %2, align 8
  %5 = getelementptr inbounds nuw %struct._archiveHandle, ptr %4, i32 0, i32 51
  %6 = load ptr, ptr %5, align 8
  %7 = call i32 @getc(ptr noundef %6)
  store i32 %7, ptr %3, align 4
  %8 = load i32, ptr %3, align 4
  %9 = icmp eq i32 %8, -1
  br i1 %9, label %10, label %28

10:                                               ; preds = %1
  br label %11

11:                                               ; preds = %10
  %12 = load ptr, ptr %2, align 8
  %13 = getelementptr inbounds nuw %struct._archiveHandle, ptr %12, i32 0, i32 51
  %14 = load ptr, ptr %13, align 8
  %15 = call i32 @feof(ptr noundef %14) #7
  %16 = icmp ne i32 %15, 0
  br i1 %16, label %17, label %21

17:                                               ; preds = %11
  br label %18

18:                                               ; preds = %17
  call void (i32, i32, ptr, ...) @pg_log_generic(i32 noundef 4, i32 noundef 0, ptr noundef @.str.16)
  call void @exit_nicely(i32 noundef 1) #9
  unreachable

19:                                               ; No predecessors!
  br label %20

20:                                               ; preds = %19
  br label %25

21:                                               ; preds = %11
  br label %22

22:                                               ; preds = %21
  call void (i32, i32, ptr, ...) @pg_log_generic(i32 noundef 4, i32 noundef 0, ptr noundef @.str.17)
  call void @exit_nicely(i32 noundef 1) #9
  unreachable

23:                                               ; No predecessors!
  br label %24

24:                                               ; preds = %23
  br label %25

25:                                               ; preds = %24, %20
  br label %26

26:                                               ; preds = %25
  br label %27

27:                                               ; preds = %26
  br label %28

28:                                               ; preds = %27, %1
  %29 = load i32, ptr %3, align 4
  call void @llvm.lifetime.end.p0(i64 4, ptr %3) #7
  ret i32 %29
}