; Function Attrs: nounwind uwtable
define internal range(i32 0, -1) i32 @_ReadByte(ptr noundef readonly captures(none) %0) #0 {
  %2 = getelementptr inbounds nuw i8, ptr %0, i64 488
  %3 = load ptr, ptr %2, align 8
  %4 = tail call i32 @getc(ptr noundef %3)
  %5 = icmp eq i32 %4, -1
  br i1 %5, label %6, label %11

6:                                                ; preds = %1
  %7 = load ptr, ptr %2, align 8
  %8 = tail call i32 @feof(ptr noundef %7) #7
  %.not = icmp eq i32 %8, 0
  br i1 %.not, label %10, label %9

9:                                                ; preds = %6
  tail call void (i32, i32, ptr, ...) @pg_log_generic(i32 noundef 4, i32 noundef 0, ptr noundef nonnull @.str.16) #7
  tail call void @exit_nicely(i32 noundef 1) #8
  unreachable

10:                                               ; preds = %6
  tail call void (i32, i32, ptr, ...) @pg_log_generic(i32 noundef 4, i32 noundef 0, ptr noundef nonnull @.str.17) #7
  tail call void @exit_nicely(i32 noundef 1) #8
  unreachable

11:                                               ; preds = %1
  ret i32 %4
}